; ModuleID = '31/1993.c'
source_filename = "31/1993.c"
target datalayout = "e-m:e-p270:32:32-p271:32:32-p272:64:64-i64:64-f80:128-n8:16:32:64-S128"
target triple = "x86_64-pc-linux-gnu"

%struct.student = type { [200 x i8], [100 x i8], i8, i32, [200 x i8], [200 x i8], %struct.student* }

@.str = private unnamed_addr constant [3 x i8] c"%s\00", align 1
@.str.1 = private unnamed_addr constant [4 x i8] c"end\00", align 1
@.str.2 = private unnamed_addr constant [15 x i8] c"%s %c %d %s %s\00", align 1
@.str.3 = private unnamed_addr constant [19 x i8] c"%s %s %c %d %s %s\0A\00", align 1

; Function Attrs: noinline nounwind uwtable
define dso_local %struct.student* @creat() #0 {
  %1 = alloca %struct.student*, align 8
  %2 = alloca %struct.student*, align 8
  %3 = alloca %struct.student*, align 8
  %4 = call noalias i8* @malloc(i64 100) #4
  %5 = bitcast i8* %4 to %struct.student*
  store %struct.student* %5, %struct.student** %2, align 8
  store %struct.student* null, %struct.student** %3, align 8
  %6 = load %struct.student*, %struct.student** %2, align 8
  %7 = getelementptr inbounds %struct.student, %struct.student* %6, i32 0, i32 0
  %8 = getelementptr inbounds [200 x i8], [200 x i8]* %7, i64 0, i64 0
  %9 = call i32 (i8*, ...) @__isoc99_scanf(i8* getelementptr inbounds ([3 x i8], [3 x i8]* @.str, i64 0, i64 0), i8* %8)
  %10 = load %struct.student*, %struct.student** %2, align 8
  %11 = getelementptr inbounds %struct.student, %struct.student* %10, i32 0, i32 0
  %12 = getelementptr inbounds [200 x i8], [200 x i8]* %11, i64 0, i64 0
  %13 = call i32 @strcmp(i8* %12, i8* getelementptr inbounds ([4 x i8], [4 x i8]* @.str.1, i64 0, i64 0)) #5
  %14 = icmp eq i32 %13, 0
  br i1 %14, label %15, label %17

15:                                               ; preds = %0
  %16 = load %struct.student*, %struct.student** %3, align 8
  store %struct.student* %16, %struct.student** %1, align 8
  br label %67

17:                                               ; preds = %0
  %18 = load %struct.student*, %struct.student** %2, align 8
  %19 = getelementptr inbounds %struct.student, %struct.student* %18, i32 0, i32 1
  %20 = getelementptr inbounds [100 x i8], [100 x i8]* %19, i64 0, i64 0
  %21 = load %struct.student*, %struct.student** %2, align 8
  %22 = getelementptr inbounds %struct.student, %struct.student* %21, i32 0, i32 2
  %23 = load %struct.student*, %struct.student** %2, align 8
  %24 = getelementptr inbounds %struct.student, %struct.student* %23, i32 0, i32 3
  %25 = load %struct.student*, %struct.student** %2, align 8
  %26 = getelementptr inbounds %struct.student, %struct.student* %25, i32 0, i32 4
  %27 = getelementptr inbounds [200 x i8], [200 x i8]* %26, i64 0, i64 0
  %28 = load %struct.student*, %struct.student** %2, align 8
  %29 = getelementptr inbounds %struct.student, %struct.student* %28, i32 0, i32 5
  %30 = getelementptr inbounds [200 x i8], [200 x i8]* %29, i64 0, i64 0
  %31 = call i32 (i8*, ...) @__isoc99_scanf(i8* getelementptr inbounds ([15 x i8], [15 x i8]* @.str.2, i64 0, i64 0), i8* %20, i8* %22, i32* %24, i8* %27, i8* %30)
  br label %32

32:                                               ; preds = %17, %64
  %33 = load %struct.student*, %struct.student** %3, align 8
  %34 = load %struct.student*, %struct.student** %2, align 8
  %35 = getelementptr inbounds %struct.student, %struct.student* %34, i32 0, i32 6
  store %struct.student* %33, %struct.student** %35, align 8
  %36 = load %struct.student*, %struct.student** %2, align 8
  store %struct.student* %36, %struct.student** %3, align 8
  %37 = call noalias i8* @malloc(i64 100) #4
  %38 = bitcast i8* %37 to %struct.student*
  store %struct.student* %38, %struct.student** %2, align 8
  %39 = load %struct.student*, %struct.student** %2, align 8
  %40 = getelementptr inbounds %struct.student, %struct.student* %39, i32 0, i32 0
  %41 = getelementptr inbounds [200 x i8], [200 x i8]* %40, i64 0, i64 0
  %42 = call i32 (i8*, ...) @__isoc99_scanf(i8* getelementptr inbounds ([3 x i8], [3 x i8]* @.str, i64 0, i64 0), i8* %41)
  %43 = load %struct.student*, %struct.student** %2, align 8
  %44 = getelementptr inbounds %struct.student, %struct.student* %43, i32 0, i32 0
  %45 = getelementptr inbounds [200 x i8], [200 x i8]* %44, i64 0, i64 0
  %46 = call i32 @strcmp(i8* %45, i8* getelementptr inbounds ([4 x i8], [4 x i8]* @.str.1, i64 0, i64 0)) #5
  %47 = icmp eq i32 %46, 0
  br i1 %47, label %48, label %49

48:                                               ; preds = %32
  br label %65

49:                                               ; preds = %32
  %50 = load %struct.student*, %struct.student** %2, align 8
  %51 = getelementptr inbounds %struct.student, %struct.student* %50, i32 0, i32 1
  %52 = getelementptr inbounds [100 x i8], [100 x i8]* %51, i64 0, i64 0
  %53 = load %struct.student*, %struct.student** %2, align 8
  %54 = getelementptr inbounds %struct.student, %struct.student* %53, i32 0, i32 2
  %55 = load %struct.student*, %struct.student** %2, align 8
  %56 = getelementptr inbounds %struct.student, %struct.student* %55, i32 0, i32 3
  %57 = load %struct.student*, %struct.student** %2, align 8
  %58 = getelementptr inbounds %struct.student, %struct.student* %57, i32 0, i32 4
  %59 = getelementptr inbounds [200 x i8], [200 x i8]* %58, i64 0, i64 0
  %60 = load %struct.student*, %struct.student** %2, align 8
  %61 = getelementptr inbounds %struct.student, %struct.student* %60, i32 0, i32 5
  %62 = getelementptr inbounds [200 x i8], [200 x i8]* %61, i64 0, i64 0
  %63 = call i32 (i8*, ...) @__isoc99_scanf(i8* getelementptr inbounds ([15 x i8], [15 x i8]* @.str.2, i64 0, i64 0), i8* %52, i8* %54, i32* %56, i8* %59, i8* %62)
  br label %64

64:                                               ; preds = %49
  br label %32

65:                                               ; preds = %48
  %66 = load %struct.student*, %struct.student** %3, align 8
  store %struct.student* %66, %struct.student** %1, align 8
  br label %67

67:                                               ; preds = %65, %15
  %68 = load %struct.student*, %struct.student** %1, align 8
  ret %struct.student* %68
}

; Function Attrs: nounwind
declare dso_local noalias i8* @malloc(i64) #1

declare dso_local i32 @__isoc99_scanf(i8*, ...) #2

; Function Attrs: nounwind readonly
declare dso_local i32 @strcmp(i8*, i8*) #3

; Function Attrs: noinline nounwind uwtable
define dso_local void @main() #0 {
  %1 = alloca %struct.student*, align 8
  %2 = call %struct.student* @creat()
  store %struct.student* %2, %struct.student** %1, align 8
  br label %3

3:                                                ; preds = %16, %12, %0
  %4 = load %struct.student*, %struct.student** %1, align 8
  %5 = icmp ne %struct.student* %4, null
  br i1 %5, label %6, label %40

6:                                                ; preds = %3
  %7 = load %struct.student*, %struct.student** %1, align 8
  %8 = getelementptr inbounds %struct.student, %struct.student* %7, i32 0, i32 0
  %9 = getelementptr inbounds [200 x i8], [200 x i8]* %8, i64 0, i64 0
  %10 = call i32 @strcmp(i8* %9, i8* getelementptr inbounds ([4 x i8], [4 x i8]* @.str.1, i64 0, i64 0)) #5
  %11 = icmp eq i32 %10, 0
  br i1 %11, label %12, label %16

12:                                               ; preds = %6
  %13 = load %struct.student*, %struct.student** %1, align 8
  %14 = getelementptr inbounds %struct.student, %struct.student* %13, i32 0, i32 6
  %15 = load %struct.student*, %struct.student** %14, align 8
  store %struct.student* %15, %struct.student** %1, align 8
  br label %3

16:                                               ; preds = %6
  %17 = load %struct.student*, %struct.student** %1, align 8
  %18 = getelementptr inbounds %struct.student, %struct.student* %17, i32 0, i32 0
  %19 = getelementptr inbounds [200 x i8], [200 x i8]* %18, i64 0, i64 0
  %20 = load %struct.student*, %struct.student** %1, align 8
  %21 = getelementptr inbounds %struct.student, %struct.student* %20, i32 0, i32 1
  %22 = getelementptr inbounds [100 x i8], [100 x i8]* %21, i64 0, i64 0
  %23 = load %struct.student*, %struct.student** %1, align 8
  %24 = getelementptr inbounds %struct.student, %struct.student* %23, i32 0, i32 2
  %25 = load i8, i8* %24, align 4
  %26 = sext i8 %25 to i32
  %27 = load %struct.student*, %struct.student** %1, align 8
  %28 = getelementptr inbounds %struct.student, %struct.student* %27, i32 0, i32 3
  %29 = load i32, i32* %28, align 8
  %30 = load %struct.student*, %struct.student** %1, align 8
  %31 = getelementptr inbounds %struct.student, %struct.student* %30, i32 0, i32 4
  %32 = getelementptr inbounds [200 x i8], [200 x i8]* %31, i64 0, i64 0
  %33 = load %struct.student*, %struct.student** %1, align 8
  %34 = getelementptr inbounds %struct.student, %struct.student* %33, i32 0, i32 5
  %35 = getelementptr inbounds [200 x i8], [200 x i8]* %34, i64 0, i64 0
  %36 = call i32 (i8*, ...) @printf(i8* getelementptr inbounds ([19 x i8], [19 x i8]* @.str.3, i64 0, i64 0), i8* %19, i8* %22, i32 %26, i32 %29, i8* %32, i8* %35)
  %37 = load %struct.student*, %struct.student** %1, align 8
  %38 = getelementptr inbounds %struct.student, %struct.student* %37, i32 0, i32 6
  %39 = load %struct.student*, %struct.student** %38, align 8
  store %struct.student* %39, %struct.student** %1, align 8
  br label %3

40:                                               ; preds = %3
  ret void
}

declare dso_local i32 @printf(i8*, ...) #2


!llvm.module.flags = !{!0}
!llvm.ident = !{!1}

!0 = !{i32 1, !"wchar_size", i32 4}
!1 = !{!"clang version 10.0.0-4ubuntu1 "}
