; ModuleID = 'source-C-CXX/30/1993.c'
source_filename = "source-C-CXX/30/1993.c"
target datalayout = "e-m:e-p270:32:32-p271:32:32-p272:64:64-i64:64-f80:128-n8:16:32:64-S128"
target triple = "x86_64-pc-linux-gnu"

%struct.student = type { [200 x i8], [100 x i8], i8, i32, [200 x i8], [200 x i8], %struct.student* }

@.str = private unnamed_addr constant [3 x i8] c"%s\00", align 1
@.str.1 = private unnamed_addr constant [4 x i8] c"end\00", align 1
@.str.2 = private unnamed_addr constant [15 x i8] c"%s %c %d %s %s\00", align 1
@.str.3 = private unnamed_addr constant [19 x i8] c"%s %s %c %d %s %s\0A\00", align 1

; Function Attrs: nofree nounwind sspstrong uwtable
define dso_local %struct.student* @creat() local_unnamed_addr #0 {
  %1 = tail call noalias align 16 dereferenceable_or_null(100) i8* @malloc(i64 100) #4
  %2 = bitcast i8* %1 to %struct.student*
  %3 = getelementptr inbounds %struct.student, %struct.student* %2, i64 0, i32 0, i64 0
  %4 = tail call i32 (i8*, ...) @__isoc99_scanf(i8* getelementptr inbounds ([3 x i8], [3 x i8]* @.str, i64 0, i64 0), i8* %3)
  %5 = tail call i32 @strcmp(i8* noundef nonnull dereferenceable(1) %3, i8* noundef nonnull dereferenceable(4) getelementptr inbounds ([4 x i8], [4 x i8]* @.str.1, i64 0, i64 0)) #5
  %6 = icmp eq i32 %5, 0
  br i1 %6, label %37, label %7

7:                                                ; preds = %0
  %8 = getelementptr inbounds %struct.student, %struct.student* %2, i64 0, i32 1, i64 0
  %9 = getelementptr inbounds %struct.student, %struct.student* %2, i64 0, i32 2
  %10 = getelementptr inbounds %struct.student, %struct.student* %2, i64 0, i32 3
  %11 = getelementptr inbounds %struct.student, %struct.student* %2, i64 0, i32 4, i64 0
  %12 = getelementptr inbounds %struct.student, %struct.student* %2, i64 0, i32 5, i64 0
  %13 = tail call i32 (i8*, ...) @__isoc99_scanf(i8* getelementptr inbounds ([15 x i8], [15 x i8]* @.str.2, i64 0, i64 0), i8* nonnull %8, i8* nonnull %9, i32* nonnull %10, i8* nonnull %11, i8* nonnull %12)
  %14 = getelementptr inbounds %struct.student, %struct.student* %2, i64 0, i32 6
  store %struct.student* null, %struct.student** %14, align 8, !tbaa !5
  %15 = tail call noalias align 16 dereferenceable_or_null(100) i8* @malloc(i64 100) #4
  %16 = bitcast i8* %15 to %struct.student*
  %17 = getelementptr inbounds %struct.student, %struct.student* %16, i64 0, i32 0, i64 0
  %18 = tail call i32 (i8*, ...) @__isoc99_scanf(i8* getelementptr inbounds ([3 x i8], [3 x i8]* @.str, i64 0, i64 0), i8* %17)
  %19 = tail call i32 @strcmp(i8* noundef nonnull dereferenceable(1) %17, i8* noundef nonnull dereferenceable(4) getelementptr inbounds ([4 x i8], [4 x i8]* @.str.1, i64 0, i64 0)) #5
  %20 = icmp eq i32 %19, 0
  br i1 %20, label %37, label %21

21:                                               ; preds = %7, %21
  %22 = phi %struct.student* [ %32, %21 ], [ %16, %7 ]
  %23 = phi %struct.student* [ %22, %21 ], [ %2, %7 ]
  %24 = getelementptr inbounds %struct.student, %struct.student* %22, i64 0, i32 1, i64 0
  %25 = getelementptr inbounds %struct.student, %struct.student* %22, i64 0, i32 2
  %26 = getelementptr inbounds %struct.student, %struct.student* %22, i64 0, i32 3
  %27 = getelementptr inbounds %struct.student, %struct.student* %22, i64 0, i32 4, i64 0
  %28 = getelementptr inbounds %struct.student, %struct.student* %22, i64 0, i32 5, i64 0
  %29 = tail call i32 (i8*, ...) @__isoc99_scanf(i8* getelementptr inbounds ([15 x i8], [15 x i8]* @.str.2, i64 0, i64 0), i8* nonnull %24, i8* nonnull %25, i32* nonnull %26, i8* nonnull %27, i8* nonnull %28)
  %30 = getelementptr inbounds %struct.student, %struct.student* %22, i64 0, i32 6
  store %struct.student* %23, %struct.student** %30, align 8, !tbaa !5
  %31 = tail call noalias align 16 dereferenceable_or_null(100) i8* @malloc(i64 100) #4
  %32 = bitcast i8* %31 to %struct.student*
  %33 = getelementptr inbounds %struct.student, %struct.student* %32, i64 0, i32 0, i64 0
  %34 = tail call i32 (i8*, ...) @__isoc99_scanf(i8* getelementptr inbounds ([3 x i8], [3 x i8]* @.str, i64 0, i64 0), i8* %33)
  %35 = tail call i32 @strcmp(i8* noundef nonnull dereferenceable(1) %33, i8* noundef nonnull dereferenceable(4) getelementptr inbounds ([4 x i8], [4 x i8]* @.str.1, i64 0, i64 0)) #5
  %36 = icmp eq i32 %35, 0
  br i1 %36, label %37, label %21

37:                                               ; preds = %21, %7, %0
  %38 = phi %struct.student* [ null, %0 ], [ %2, %7 ], [ %22, %21 ]
  ret %struct.student* %38
}

; Function Attrs: inaccessiblememonly mustprogress nofree nounwind willreturn
declare noalias noundef align 16 i8* @malloc(i64 noundef) local_unnamed_addr #1

; Function Attrs: nofree nounwind
declare noundef i32 @__isoc99_scanf(i8* nocapture noundef readonly, ...) local_unnamed_addr #2

; Function Attrs: argmemonly mustprogress nofree nounwind readonly willreturn
declare i32 @strcmp(i8* nocapture, i8* nocapture) local_unnamed_addr #3

; Function Attrs: nofree nounwind sspstrong uwtable
define dso_local void @main() local_unnamed_addr #0 {
  %1 = tail call %struct.student* @creat()
  %2 = icmp eq %struct.student* %1, null
  br i1 %2, label %22, label %3

3:                                                ; preds = %0, %8
  %4 = phi %struct.student* [ %10, %8 ], [ %1, %0 ]
  %5 = getelementptr inbounds %struct.student, %struct.student* %4, i64 0, i32 0, i64 0
  %6 = tail call i32 @strcmp(i8* noundef nonnull %5, i8* noundef nonnull dereferenceable(4) getelementptr inbounds ([4 x i8], [4 x i8]* @.str.1, i64 0, i64 0)) #5
  %7 = icmp eq i32 %6, 0
  br i1 %7, label %8, label %12

8:                                                ; preds = %3, %12
  %9 = getelementptr inbounds %struct.student, %struct.student* %4, i64 0, i32 6
  %10 = load %struct.student*, %struct.student** %9, align 8, !tbaa !5
  %11 = icmp eq %struct.student* %10, null
  br i1 %11, label %22, label %3, !llvm.loop !11

12:                                               ; preds = %3
  %13 = getelementptr inbounds %struct.student, %struct.student* %4, i64 0, i32 1, i64 0
  %14 = getelementptr inbounds %struct.student, %struct.student* %4, i64 0, i32 2
  %15 = load i8, i8* %14, align 4, !tbaa !13
  %16 = sext i8 %15 to i32
  %17 = getelementptr inbounds %struct.student, %struct.student* %4, i64 0, i32 3
  %18 = load i32, i32* %17, align 8, !tbaa !14
  %19 = getelementptr inbounds %struct.student, %struct.student* %4, i64 0, i32 4, i64 0
  %20 = getelementptr inbounds %struct.student, %struct.student* %4, i64 0, i32 5, i64 0
  %21 = tail call i32 (i8*, ...) @printf(i8* nonnull dereferenceable(1) getelementptr inbounds ([19 x i8], [19 x i8]* @.str.3, i64 0, i64 0), i8* nonnull %5, i8* nonnull %13, i32 %16, i32 %18, i8* nonnull %19, i8* nonnull %20)
  br label %8

22:                                               ; preds = %8, %0
  ret void
}

; Function Attrs: nofree nounwind
declare noundef i32 @printf(i8* nocapture noundef readonly, ...) local_unnamed_addr #2


!llvm.module.flags = !{!0, !1, !2, !3}
!llvm.ident = !{!4}

!0 = !{i32 1, !"wchar_size", i32 4}
!1 = !{i32 7, !"PIC Level", i32 2}
!2 = !{i32 7, !"PIE Level", i32 2}
!3 = !{i32 7, !"uwtable", i32 1}
!4 = !{!"clang version 13.0.0"}
!5 = !{!6, !10, i64 712}
!6 = !{!"student", !7, i64 0, !7, i64 200, !7, i64 300, !9, i64 304, !7, i64 308, !7, i64 508, !10, i64 712}
!7 = !{!"omnipotent char", !8, i64 0}
!8 = !{!"Simple C/C++ TBAA"}
!9 = !{!"int", !7, i64 0}
!10 = !{!"any pointer", !7, i64 0}
!11 = distinct !{!11, !12}
!12 = !{!"llvm.loop.mustprogress"}
!13 = !{!6, !7, i64 300}
!14 = !{!6, !9, i64 304}
